; Function Attrs: nounwind uwtable
define internal void @var_constructor(ptr noundef initializes((120, 384)) %0) #0 {
  %2 = getelementptr inbounds nuw i8, ptr %0, i64 120
  tail call void @llvm.memset.p0.i64(ptr noundef nonnull align 1 dereferenceable(264) %2, i8 0, i64 264, i1 false)
  %3 = getelementptr inbounds nuw i8, ptr %0, i64 128
  store i32 9, ptr %3, align 8, !tbaa !3
  %4 = load i32, ptr @pmix_class_init_epoch, align 4, !tbaa !16
  %5 = load i32, ptr getelementptr inbounds nuw (i8, ptr @pmix_value_array_t_class, i64 32), align 8, !tbaa !17
  %.not = icmp eq i32 %4, %5
  br i1 %.not, label %7, label %6

6:                                                ; preds = %1
  tail call void @pmix_class_initialize(ptr noundef nonnull @pmix_value_array_t_class) #25
  br label %7

7:                                                ; preds = %6, %1
  %8 = getelementptr inbounds nuw i8, ptr %0, i64 168
  %9 = getelementptr inbounds nuw i8, ptr %0, i64 208
  store ptr @pmix_value_array_t_class, ptr %9, align 8, !tbaa !19
  %10 = getelementptr inbounds nuw i8, ptr %0, i64 216
  store i32 1, ptr %10, align 8, !tbaa !20
  %11 = getelementptr inbounds nuw i8, ptr %0, i64 224
  tail call void @llvm.memset.p0.i64(ptr noundef nonnull align 8 dereferenceable(64) %11, i8 0, i64 64, i1 false)
  %12 = load ptr, ptr getelementptr inbounds nuw (i8, ptr @pmix_value_array_t_class, i64 40), align 8, !tbaa !21
  %13 = load ptr, ptr %12, align 8, !tbaa !22
  %.not6.i = icmp eq ptr %13, null
  br i1 %.not6.i, label %pmix_obj_run_constructors.exit, label %.lr.ph.i

.lr.ph.i:                                         ; preds = %7, %.lr.ph.i
  %14 = phi ptr [ %16, %.lr.ph.i ], [ %13, %7 ]
  %.07.i = phi ptr [ %15, %.lr.ph.i ], [ %12, %7 ]
  tail call void %14(ptr noundef nonnull %8) #25
  %15 = getelementptr inbounds nuw i8, ptr %.07.i, i64 8
  %16 = load ptr, ptr %15, align 8, !tbaa !22
  %.not.i = icmp eq ptr %16, null
  br i1 %.not.i, label %pmix_obj_run_constructors.exit, label %.lr.ph.i, !llvm.loop !23

pmix_obj_run_constructors.exit:                   ; preds = %.lr.ph.i, %7
  %17 = getelementptr inbounds nuw i8, ptr %0, i64 296
  store i64 4, ptr %17, align 8, !tbaa !25
  %18 = getelementptr inbounds nuw i8, ptr %0, i64 312
  store i64 1, ptr %18, align 8, !tbaa !26
  %19 = getelementptr inbounds nuw i8, ptr %0, i64 304
  store i64 0, ptr %19, align 8, !tbaa !27
  %20 = getelementptr inbounds nuw i8, ptr %0, i64 288
  %21 = load ptr, ptr %20, align 8, !tbaa !28
  %22 = tail call dereferenceable_or_null(4) ptr @realloc(ptr noundef %21, i64 noundef 4) #26
  store ptr %22, ptr %20, align 8, !tbaa !28
  ret void
}